target datalayout = "e-m:e-p270:32:32-p271:32:32-p272:64:64-i64:64-i128:128-f80:128-n8:16:32:64-S128"
target triple = "x86_64-pc-linux-gnu"

%struct.URLContext = type { ptr, ptr, ptr, ptr, i32, i32, i32, i32, %struct.AVIOInterruptCB, i64, ptr, ptr, i32 }
%struct.AVIOInterruptCB = type { ptr, ptr }
%struct.UDPContext = type { ptr, i32, i32, i32, i32, i32, i32, i32, i32, i32, i32, %struct.sockaddr_storage, i32, i32, i32, ptr, i32, i64, i64, i32, i64, %union.pthread_mutex_t, %union.pthread_cond_t, i32, [65540 x i8], i32, ptr, i32, %struct.sockaddr_storage, ptr, ptr, %struct.IPSourceFilters }
%union.pthread_mutex_t = type { %struct.__pthread_mutex_s }
%struct.__pthread_mutex_s = type { i32, i32, i32, i32, i32, i16, i16, %struct.__pthread_internal_list }
%struct.__pthread_internal_list = type { ptr, ptr }
%union.pthread_cond_t = type { %struct.__pthread_cond_s }
%struct.__pthread_cond_s = type { %union.__atomic_wide_counter, %union.__atomic_wide_counter, [2 x i32], [2 x i32], i32, i32, [2 x i32] }
%union.__atomic_wide_counter = type { i64 }
%struct.sockaddr_storage = type { i16, [118 x i8], i64 }
%struct.IPSourceFilters = type { i32, i32, ptr, ptr }
%struct.sockaddr = type { i16, [14 x i8] }
%struct.in_addr = type { i32 }
%struct.sockaddr_in = type { i16, i16, %struct.in_addr, [8 x i8] }
%struct.ip_mreq = type { %struct.in_addr, %struct.in_addr }
%struct.ipv6_mreq = type { %struct.in6_addr, i32 }
%struct.in6_addr = type { %union.anon }
%union.anon = type { [4 x i32] }
%struct.sockaddr_in6 = type { i16, i16, i32, %struct.in6_addr, i32 }

@.str.53 = private unnamed_addr constant [20 x i8] c"pthread_join(): %s\0A\00", align 1
@.str.54 = private unnamed_addr constant [31 x i8] c"setsockopt(IP_DROP_MEMBERSHIP)\00", align 1
@.str.55 = private unnamed_addr constant [33 x i8] c"setsockopt(IPV6_DROP_MEMBERSHIP)\00", align 1

; Function Attrs: nounwind uwtable
define internal i32 @udp_leave_multicast_group(i32 noundef %0, ptr noundef %1, ptr noundef %2, ptr noundef %3) #0 {
  %5 = alloca i32, align 4
  %6 = alloca i32, align 4
  %7 = alloca ptr, align 8
  %8 = alloca ptr, align 8
  %9 = alloca ptr, align 8
  %10 = alloca %struct.ip_mreq, align 4
  %11 = alloca i32, align 4
  %12 = alloca %struct.ipv6_mreq, align 4
  store i32 %0, ptr %6, align 4, !tbaa !20
  store ptr %1, ptr %7, align 8, !tbaa !81
  store ptr %2, ptr %8, align 8, !tbaa !81
  store ptr %3, ptr %9, align 8, !tbaa !82
  %13 = load ptr, ptr %7, align 8, !tbaa !81
  %14 = getelementptr inbounds nuw %struct.sockaddr, ptr %13, i32 0, i32 0
  %15 = load i16, ptr %14, align 2, !tbaa !75
  %16 = zext i16 %15 to i32
  %17 = icmp eq i32 %16, 2
  br i1 %17, label %18, label %44

18:                                               ; preds = %4
  call void @llvm.lifetime.start.p0(i64 8, ptr %10) #9
  %19 = load ptr, ptr %7, align 8, !tbaa !81
  %20 = getelementptr inbounds nuw %struct.sockaddr_in, ptr %19, i32 0, i32 2
  %21 = getelementptr inbounds nuw %struct.in_addr, ptr %20, i32 0, i32 0
  %22 = load i32, ptr %21, align 4, !tbaa !87
  %23 = getelementptr inbounds nuw %struct.ip_mreq, ptr %10, i32 0, i32 0
  %24 = getelementptr inbounds nuw %struct.in_addr, ptr %23, i32 0, i32 0
  store i32 %22, ptr %24, align 4, !tbaa !96
  %25 = load ptr, ptr %8, align 8, !tbaa !81
  %26 = icmp ne ptr %25, null
  br i1 %26, label %27, label %31

27:                                               ; preds = %18
  %28 = getelementptr inbounds nuw %struct.ip_mreq, ptr %10, i32 0, i32 1
  %29 = load ptr, ptr %8, align 8, !tbaa !81
  %30 = getelementptr inbounds nuw %struct.sockaddr_in, ptr %29, i32 0, i32 2
  call void @llvm.memcpy.p0.p0.i64(ptr align 4 %28, ptr align 4 %30, i64 4, i1 false), !tbaa.struct !92
  br label %34

31:                                               ; preds = %18
  %32 = getelementptr inbounds nuw %struct.ip_mreq, ptr %10, i32 0, i32 1
  %33 = getelementptr inbounds nuw %struct.in_addr, ptr %32, i32 0, i32 0
  store i32 0, ptr %33, align 4, !tbaa !98
  br label %34

34:                                               ; preds = %31, %27
  %35 = load i32, ptr %6, align 4, !tbaa !20
  %36 = call i32 @setsockopt(i32 noundef %35, i32 noundef 0, i32 noundef 36, ptr noundef %10, i32 noundef 8) #9
  %37 = icmp slt i32 %36, 0
  br i1 %37, label %38, label %40

38:                                               ; preds = %34
  %39 = load ptr, ptr %9, align 8, !tbaa !82
  call void @ff_log_net_error(ptr noundef %39, i32 noundef 16, ptr noundef @.str.54)
  store i32 -1, ptr %5, align 4
  store i32 1, ptr %11, align 4
  br label %41

40:                                               ; preds = %34
  store i32 0, ptr %11, align 4
  br label %41

41:                                               ; preds = %40, %38
  call void @llvm.lifetime.end.p0(i64 8, ptr %10) #9
  %42 = load i32, ptr %11, align 4
  switch i32 %42, label %67 [
    i32 0, label %43
    i32 1, label %65
  ]

43:                                               ; preds = %41
  br label %44

44:                                               ; preds = %43, %4
  %45 = load ptr, ptr %7, align 8, !tbaa !81
  %46 = getelementptr inbounds nuw %struct.sockaddr, ptr %45, i32 0, i32 0
  %47 = load i16, ptr %46, align 2, !tbaa !75
  %48 = zext i16 %47 to i32
  %49 = icmp eq i32 %48, 10
  br i1 %49, label %50, label %64

50:                                               ; preds = %44
  call void @llvm.lifetime.start.p0(i64 20, ptr %12) #9
  %51 = getelementptr inbounds nuw %struct.ipv6_mreq, ptr %12, i32 0, i32 0
  %52 = load ptr, ptr %7, align 8, !tbaa !81
  %53 = getelementptr inbounds nuw %struct.sockaddr_in6, ptr %52, i32 0, i32 3
  call void @llvm.memcpy.p0.p0.i64(ptr align 4 %51, ptr align 4 %53, i64 16, i1 false)
  %54 = getelementptr inbounds nuw %struct.ipv6_mreq, ptr %12, i32 0, i32 1
  store i32 0, ptr %54, align 4, !tbaa !99
  %55 = load i32, ptr %6, align 4, !tbaa !20
  %56 = call i32 @setsockopt(i32 noundef %55, i32 noundef 41, i32 noundef 21, ptr noundef %12, i32 noundef 20) #9
  %57 = icmp slt i32 %56, 0
  br i1 %57, label %58, label %60

58:                                               ; preds = %50
  %59 = load ptr, ptr %9, align 8, !tbaa !82
  call void @ff_log_net_error(ptr noundef %59, i32 noundef 16, ptr noundef @.str.55)
  store i32 -1, ptr %5, align 4
  store i32 1, ptr %11, align 4
  br label %61

60:                                               ; preds = %50
  store i32 0, ptr %11, align 4
  br label %61

61:                                               ; preds = %60, %58
  call void @llvm.lifetime.end.p0(i64 20, ptr %12) #9
  %62 = load i32, ptr %11, align 4
  switch i32 %62, label %67 [
    i32 0, label %63
    i32 1, label %65
  ]

63:                                               ; preds = %61
  br label %64

64:                                               ; preds = %63, %44
  store i32 0, ptr %5, align 4
  br label %65

65:                                               ; preds = %64, %61, %41
  %66 = load i32, ptr %5, align 4
  ret i32 %66

67:                                               ; preds = %61, %41
  unreachable
}

; Function Attrs: nounwind uwtable
define internal i32 @udp_close(ptr noundef %0) #0 {
  %2 = alloca ptr, align 8
  %3 = alloca ptr, align 8
  %4 = alloca i32, align 4
  store ptr %0, ptr %2, align 8, !tbaa !4
  call void @llvm.lifetime.start.p0(i64 8, ptr %3) #9
  %5 = load ptr, ptr %2, align 8, !tbaa !4
  %6 = getelementptr inbounds nuw %struct.URLContext, ptr %5, i32 0, i32 2
  %7 = load ptr, ptr %6, align 8, !tbaa !11
  store ptr %7, ptr %3, align 8, !tbaa !18
  %8 = load ptr, ptr %3, align 8, !tbaa !18
  %9 = getelementptr inbounds nuw %struct.UDPContext, ptr %8, i32 0, i32 23
  %10 = load i32, ptr %9, align 8, !tbaa !66
  %11 = icmp ne i32 %10, 0
  br i1 %11, label %12, label %30

12:                                               ; preds = %1
  %13 = load ptr, ptr %2, align 8, !tbaa !4
  %14 = getelementptr inbounds nuw %struct.URLContext, ptr %13, i32 0, i32 4
  %15 = load i32, ptr %14, align 8, !tbaa !57
  %16 = and i32 %15, 1
  %17 = icmp ne i32 %16, 0
  br i1 %17, label %30, label %18

18:                                               ; preds = %12
  %19 = load ptr, ptr %3, align 8, !tbaa !18
  %20 = getelementptr inbounds nuw %struct.UDPContext, ptr %19, i32 0, i32 21
  %21 = call i32 @pthread_mutex_lock(ptr noundef %20) #9
  %22 = load ptr, ptr %3, align 8, !tbaa !18
  %23 = getelementptr inbounds nuw %struct.UDPContext, ptr %22, i32 0, i32 19
  store i32 1, ptr %23, align 8, !tbaa !71
  %24 = load ptr, ptr %3, align 8, !tbaa !18
  %25 = getelementptr inbounds nuw %struct.UDPContext, ptr %24, i32 0, i32 22
  %26 = call i32 @pthread_cond_signal(ptr noundef %25) #9
  %27 = load ptr, ptr %3, align 8, !tbaa !18
  %28 = getelementptr inbounds nuw %struct.UDPContext, ptr %27, i32 0, i32 21
  %29 = call i32 @pthread_mutex_unlock(ptr noundef %28) #9
  br label %30

30:                                               ; preds = %18, %12, %1
  %31 = load ptr, ptr %3, align 8, !tbaa !18
  %32 = getelementptr inbounds nuw %struct.UDPContext, ptr %31, i32 0, i32 6
  %33 = load i32, ptr %32, align 4, !tbaa !28
  %34 = icmp ne i32 %33, 0
  br i1 %34, label %35, label %51

35:                                               ; preds = %30
  %36 = load ptr, ptr %2, align 8, !tbaa !4
  %37 = getelementptr inbounds nuw %struct.URLContext, ptr %36, i32 0, i32 4
  %38 = load i32, ptr %37, align 8, !tbaa !57
  %39 = and i32 %38, 1
  %40 = icmp ne i32 %39, 0
  br i1 %40, label %41, label %51

41:                                               ; preds = %35
  %42 = load ptr, ptr %3, align 8, !tbaa !18
  %43 = getelementptr inbounds nuw %struct.UDPContext, ptr %42, i32 0, i32 1
  %44 = load i32, ptr %43, align 8, !tbaa !30
  %45 = load ptr, ptr %3, align 8, !tbaa !18
  %46 = getelementptr inbounds nuw %struct.UDPContext, ptr %45, i32 0, i32 11
  %47 = load ptr, ptr %3, align 8, !tbaa !18
  %48 = getelementptr inbounds nuw %struct.UDPContext, ptr %47, i32 0, i32 28
  %49 = load ptr, ptr %2, align 8, !tbaa !4
  %50 = call i32 @udp_leave_multicast_group(i32 noundef %44, ptr noundef %46, ptr noundef %48, ptr noundef %49)
  br label %51

51:                                               ; preds = %41, %35, %30
  %52 = load ptr, ptr %3, align 8, !tbaa !18
  %53 = getelementptr inbounds nuw %struct.UDPContext, ptr %52, i32 0, i32 23
  %54 = load i32, ptr %53, align 8, !tbaa !66
  %55 = icmp ne i32 %54, 0
  br i1 %55, label %56, label %85

56:                                               ; preds = %51
  call void @llvm.lifetime.start.p0(i64 4, ptr %4) #9
  %57 = load ptr, ptr %2, align 8, !tbaa !4
  %58 = getelementptr inbounds nuw %struct.URLContext, ptr %57, i32 0, i32 4
  %59 = load i32, ptr %58, align 8, !tbaa !57
  %60 = and i32 %59, 1
  %61 = icmp ne i32 %60, 0
  br i1 %61, label %62, label %67

62:                                               ; preds = %56
  %63 = load ptr, ptr %3, align 8, !tbaa !18
  %64 = getelementptr inbounds nuw %struct.UDPContext, ptr %63, i32 0, i32 20
  %65 = load i64, ptr %64, align 8, !tbaa !72
  %66 = call i32 @pthread_cancel(i64 noundef %65)
  br label %67

67:                                               ; preds = %62, %56
  %68 = load ptr, ptr %3, align 8, !tbaa !18
  %69 = getelementptr inbounds nuw %struct.UDPContext, ptr %68, i32 0, i32 20
  %70 = load i64, ptr %69, align 8, !tbaa !72
  %71 = call i32 @pthread_join(i64 noundef %70, ptr noundef null)
  store i32 %71, ptr %4, align 4, !tbaa !20
  %72 = load i32, ptr %4, align 4, !tbaa !20
  %73 = icmp ne i32 %72, 0
  br i1 %73, label %74, label %78

74:                                               ; preds = %67
  %75 = load ptr, ptr %2, align 8, !tbaa !4
  %76 = load i32, ptr %4, align 4, !tbaa !20
  %77 = call ptr @strerror(i32 noundef %76) #9
  call void (ptr, i32, ptr, ...) @av_log(ptr noundef %75, i32 noundef 16, ptr noundef @.str.53, ptr noundef %77)
  br label %78

78:                                               ; preds = %74, %67
  %79 = load ptr, ptr %3, align 8, !tbaa !18
  %80 = getelementptr inbounds nuw %struct.UDPContext, ptr %79, i32 0, i32 21
  %81 = call i32 @pthread_mutex_destroy(ptr noundef %80) #9
  %82 = load ptr, ptr %3, align 8, !tbaa !18
  %83 = getelementptr inbounds nuw %struct.UDPContext, ptr %82, i32 0, i32 22
  %84 = call i32 @pthread_cond_destroy(ptr noundef %83) #9
  call void @llvm.lifetime.end.p0(i64 4, ptr %4) #9
  br label %85

85:                                               ; preds = %78, %51
  %86 = load ptr, ptr %3, align 8, !tbaa !18
  %87 = getelementptr inbounds nuw %struct.UDPContext, ptr %86, i32 0, i32 1
  %88 = load i32, ptr %87, align 8, !tbaa !30
  %89 = call i32 @close(i32 noundef %88)
  %90 = load ptr, ptr %3, align 8, !tbaa !18
  %91 = getelementptr inbounds nuw %struct.UDPContext, ptr %90, i32 0, i32 15
  call void @av_fifo_freep2(ptr noundef %91)
  %92 = load ptr, ptr %3, align 8, !tbaa !18
  %93 = getelementptr inbounds nuw %struct.UDPContext, ptr %92, i32 0, i32 31
  call void @ff_ip_reset_filters(ptr noundef %93)
  call void @llvm.lifetime.end.p0(i64 8, ptr %3) #9
  ret i32 0
}