; Function Attrs: nounwind uwtable
define internal noundef i32 @udp_close(ptr noundef %0) #0 {
  %2 = alloca %struct.ip_mreq, align 4
  %3 = alloca %struct.ipv6_mreq, align 4
  %4 = getelementptr inbounds nuw i8, ptr %0, i64 16
  %5 = load ptr, ptr %4, align 8, !tbaa !4
  %6 = getelementptr inbounds nuw i8, ptr %5, i64 328
  %7 = load i32, ptr %6, align 8, !tbaa !65
  %.not = icmp eq i32 %7, 0
  br i1 %.not, label %19, label %8

8:                                                ; preds = %1
  %9 = getelementptr inbounds nuw i8, ptr %0, i64 32
  %10 = load i32, ptr %9, align 8, !tbaa !48
  %11 = and i32 %10, 1
  %.not24 = icmp eq i32 %11, 0
  br i1 %.not24, label %12, label %19

12:                                               ; preds = %8
  %13 = getelementptr inbounds nuw i8, ptr %5, i64 240
  %14 = tail call i32 @pthread_mutex_lock(ptr noundef nonnull %13) #11
  %15 = getelementptr inbounds nuw i8, ptr %5, i64 224
  store i32 1, ptr %15, align 8, !tbaa !70
  %16 = getelementptr inbounds nuw i8, ptr %5, i64 280
  %17 = tail call i32 @pthread_cond_signal(ptr noundef nonnull %16) #11
  %18 = tail call i32 @pthread_mutex_unlock(ptr noundef nonnull %13) #11
  br label %19

19:                                               ; preds = %12, %8, %1
  %20 = getelementptr inbounds nuw i8, ptr %5, i64 28
  %21 = load i32, ptr %20, align 4, !tbaa !28
  %.not25 = icmp eq i32 %21, 0
  br i1 %.not25, label %udp_leave_multicast_group.exit, label %22

22:                                               ; preds = %19
  %23 = getelementptr inbounds nuw i8, ptr %0, i64 32
  %24 = load i32, ptr %23, align 8, !tbaa !48
  %25 = and i32 %24, 1
  %.not26 = icmp eq i32 %25, 0
  br i1 %.not26, label %udp_leave_multicast_group.exit, label %26

26:                                               ; preds = %22
  %27 = getelementptr inbounds nuw i8, ptr %5, i64 8
  %28 = load i32, ptr %27, align 8, !tbaa !30
  %29 = getelementptr inbounds nuw i8, ptr %5, i64 48
  %30 = load i16, ptr %29, align 2, !tbaa !49
  %31 = icmp eq i16 %30, 2
  br i1 %31, label %32, label %41

32:                                               ; preds = %26
  call void @llvm.lifetime.start.p0(i64 8, ptr nonnull %2) #11
  %33 = getelementptr inbounds nuw i8, ptr %5, i64 52
  %34 = load i32, ptr %33, align 4, !tbaa !71
  store i32 %34, ptr %2, align 4, !tbaa !74
  %35 = getelementptr inbounds nuw i8, ptr %5, i64 65900
  %36 = load i32, ptr %35, align 4, !tbaa !15
  %37 = getelementptr inbounds nuw i8, ptr %2, i64 4
  store i32 %36, ptr %37, align 4, !tbaa !15
  %38 = call i32 @setsockopt(i32 noundef %28, i32 noundef 0, i32 noundef 36, ptr noundef nonnull %2, i32 noundef 8) #11
  %39 = icmp slt i32 %38, 0
  br i1 %39, label %40, label %.thread.i

.thread.i:                                        ; preds = %32
  call void @llvm.lifetime.end.p0(i64 8, ptr nonnull %2) #11
  %.pr.i = load i16, ptr %29, align 2, !tbaa !49
  br label %41

40:                                               ; preds = %32
  call void @ff_log_net_error(ptr noundef nonnull %0, i32 noundef 16, ptr noundef nonnull @.str.54) #11
  call void @llvm.lifetime.end.p0(i64 8, ptr nonnull %2) #11
  br label %udp_leave_multicast_group.exit

41:                                               ; preds = %.thread.i, %26
  %42 = phi i16 [ %.pr.i, %.thread.i ], [ %30, %26 ]
  %43 = icmp eq i16 %42, 10
  br i1 %43, label %44, label %udp_leave_multicast_group.exit

44:                                               ; preds = %41
  call void @llvm.lifetime.start.p0(i64 20, ptr nonnull %3) #11
  %45 = getelementptr inbounds nuw i8, ptr %5, i64 56
  call void @llvm.memcpy.p0.p0.i64(ptr noundef nonnull align 4 dereferenceable(16) %3, ptr noundef nonnull readonly align 4 dereferenceable(16) %45, i64 16, i1 false)
  %46 = getelementptr inbounds nuw i8, ptr %3, i64 16
  store i32 0, ptr %46, align 4, !tbaa !76
  %47 = call i32 @setsockopt(i32 noundef %28, i32 noundef 41, i32 noundef 21, ptr noundef nonnull %3, i32 noundef 20) #11
  %48 = icmp slt i32 %47, 0
  br i1 %48, label %49, label %.thread18.i

.thread18.i:                                      ; preds = %44
  call void @llvm.lifetime.end.p0(i64 20, ptr nonnull %3) #11
  br label %udp_leave_multicast_group.exit

49:                                               ; preds = %44
  call void @ff_log_net_error(ptr noundef nonnull %0, i32 noundef 16, ptr noundef nonnull @.str.55) #11
  call void @llvm.lifetime.end.p0(i64 20, ptr nonnull %3) #11
  br label %udp_leave_multicast_group.exit

udp_leave_multicast_group.exit:                   ; preds = %49, %.thread18.i, %41, %40, %22, %19
  %50 = load i32, ptr %6, align 8, !tbaa !65
  %.not27 = icmp eq i32 %50, 0
  br i1 %.not27, label %70, label %51

51:                                               ; preds = %udp_leave_multicast_group.exit
  %52 = getelementptr inbounds nuw i8, ptr %0, i64 32
  %53 = load i32, ptr %52, align 8, !tbaa !48
  %54 = and i32 %53, 1
  %.not28 = icmp eq i32 %54, 0
  br i1 %.not28, label %59, label %55

55:                                               ; preds = %51
  %56 = getelementptr inbounds nuw i8, ptr %5, i64 232
  %57 = load i64, ptr %56, align 8, !tbaa !79
  %58 = call i32 @pthread_cancel(i64 noundef %57) #11
  br label %59

59:                                               ; preds = %55, %51
  %60 = getelementptr inbounds nuw i8, ptr %5, i64 232
  %61 = load i64, ptr %60, align 8, !tbaa !79
  %62 = call i32 @pthread_join(i64 noundef %61, ptr noundef null) #11
  %.not29 = icmp eq i32 %62, 0
  br i1 %.not29, label %65, label %63

63:                                               ; preds = %59
  %64 = call ptr @strerror(i32 noundef %62) #11
  call void (ptr, i32, ptr, ...) @av_log(ptr noundef nonnull %0, i32 noundef 16, ptr noundef nonnull @.str.53, ptr noundef %64) #11
  br label %65

65:                                               ; preds = %63, %59
  %66 = getelementptr inbounds nuw i8, ptr %5, i64 240
  %67 = call i32 @pthread_mutex_destroy(ptr noundef nonnull %66) #11
  %68 = getelementptr inbounds nuw i8, ptr %5, i64 280
  %69 = call i32 @pthread_cond_destroy(ptr noundef nonnull %68) #11
  br label %70

70:                                               ; preds = %65, %udp_leave_multicast_group.exit
  %71 = getelementptr inbounds nuw i8, ptr %5, i64 8
  %72 = load i32, ptr %71, align 8, !tbaa !30
  %73 = call i32 @close(i32 noundef %72) #11
  %74 = getelementptr inbounds nuw i8, ptr %5, i64 192
  call void @av_fifo_freep2(ptr noundef nonnull %74) #11
  %75 = getelementptr inbounds nuw i8, ptr %5, i64 66040
  call void @ff_ip_reset_filters(ptr noundef nonnull %75) #11
  ret i32 0
}